target datalayout = "e-m:e-p270:32:32-p271:32:32-p272:64:64-i64:64-i128:128-f80:128-n8:16:32:64-S128"
target triple = "x86_64-pc-linux-gnu"

%struct.__ncnn_layer_t = type { ptr, ptr, ptr, ptr, ptr, ptr, ptr, ptr, ptr }

; Function Attrs: mustprogress uwtable
define hidden ptr @ncnn_layer_create_by_typeindex(i32 noundef %0) #1 {
  %2 = alloca ptr, align 8
  %3 = alloca i32, align 4
  %4 = alloca ptr, align 8
  %5 = alloca ptr, align 8
  store i32 %0, ptr %3, align 4
  %6 = load i32, ptr %3, align 4
  %7 = call noundef ptr @_ZN4ncnn12create_layerEi(i32 noundef %6)
  store ptr %7, ptr %4, align 8
  %8 = load ptr, ptr %4, align 8
  %9 = icmp ne ptr %8, null
  br i1 %9, label %11, label %10

10:                                               ; preds = %1
  store ptr null, ptr %2, align 8
  br label %33

11:                                               ; preds = %1
  %12 = call noalias ptr @malloc(i64 noundef 72) #12
  store ptr %12, ptr %5, align 8
  %13 = load ptr, ptr %4, align 8
  %14 = load ptr, ptr %5, align 8
  %15 = getelementptr inbounds nuw %struct.__ncnn_layer_t, ptr %14, i32 0, i32 0
  store ptr %13, ptr %15, align 8
  %16 = load ptr, ptr %5, align 8
  %17 = getelementptr inbounds nuw %struct.__ncnn_layer_t, ptr %16, i32 0, i32 1
  store ptr @_ZL23__ncnn_layer_load_paramP14__ncnn_layer_tP18__ncnn_paramdict_t, ptr %17, align 8
  %18 = load ptr, ptr %5, align 8
  %19 = getelementptr inbounds nuw %struct.__ncnn_layer_t, ptr %18, i32 0, i32 2
  store ptr @_ZL23__ncnn_layer_load_modelP14__ncnn_layer_tP17__ncnn_modelbin_t, ptr %19, align 8
  %20 = load ptr, ptr %5, align 8
  %21 = getelementptr inbounds nuw %struct.__ncnn_layer_t, ptr %20, i32 0, i32 3
  store ptr @_ZL28__ncnn_layer_create_pipelineP14__ncnn_layer_tP15__ncnn_option_t, ptr %21, align 8
  %22 = load ptr, ptr %5, align 8
  %23 = getelementptr inbounds nuw %struct.__ncnn_layer_t, ptr %22, i32 0, i32 4
  store ptr @_ZL29__ncnn_layer_destroy_pipelineP14__ncnn_layer_tP15__ncnn_option_t, ptr %23, align 8
  %24 = load ptr, ptr %5, align 8
  %25 = getelementptr inbounds nuw %struct.__ncnn_layer_t, ptr %24, i32 0, i32 5
  store ptr @_ZL22__ncnn_layer_forward_1P14__ncnn_layer_tP12__ncnn_mat_tPS2_P15__ncnn_option_t, ptr %25, align 8
  %26 = load ptr, ptr %5, align 8
  %27 = getelementptr inbounds nuw %struct.__ncnn_layer_t, ptr %26, i32 0, i32 6
  store ptr @_ZL22__ncnn_layer_forward_nP14__ncnn_layer_tPKP12__ncnn_mat_tiPS2_iP15__ncnn_option_t, ptr %27, align 8
  %28 = load ptr, ptr %5, align 8
  %29 = getelementptr inbounds nuw %struct.__ncnn_layer_t, ptr %28, i32 0, i32 7
  store ptr @_ZL30__ncnn_layer_forward_inplace_1P14__ncnn_layer_tP12__ncnn_mat_tP15__ncnn_option_t, ptr %29, align 8
  %30 = load ptr, ptr %5, align 8
  %31 = getelementptr inbounds nuw %struct.__ncnn_layer_t, ptr %30, i32 0, i32 8
  store ptr @_ZL30__ncnn_layer_forward_inplace_nP14__ncnn_layer_tPP12__ncnn_mat_tiP15__ncnn_option_t, ptr %31, align 8
  %32 = load ptr, ptr %5, align 8
  store ptr %32, ptr %2, align 8
  br label %33

33:                                               ; preds = %11, %10
  %34 = load ptr, ptr %2, align 8
  ret ptr %34
}