; Function Attrs: mustprogress uwtable
define hidden noalias noundef ptr @ncnn_layer_create_by_typeindex(i32 noundef %0) local_unnamed_addr #1 {
  %2 = tail call noundef ptr @_ZN4ncnn12create_layerEi(i32 noundef %0)
  %.not = icmp eq ptr %2, null
  br i1 %.not, label %13, label %3

3:                                                ; preds = %1
  %4 = tail call noalias dereferenceable_or_null(72) ptr @malloc(i64 noundef 72) #23
  store ptr %2, ptr %4, align 8
  %5 = getelementptr inbounds nuw i8, ptr %4, i64 8
  store ptr @_ZL23__ncnn_layer_load_paramP14__ncnn_layer_tP18__ncnn_paramdict_t, ptr %5, align 8
  %6 = getelementptr inbounds nuw i8, ptr %4, i64 16
  store ptr @_ZL23__ncnn_layer_load_modelP14__ncnn_layer_tP17__ncnn_modelbin_t, ptr %6, align 8
  %7 = getelementptr inbounds nuw i8, ptr %4, i64 24
  store ptr @_ZL28__ncnn_layer_create_pipelineP14__ncnn_layer_tP15__ncnn_option_t, ptr %7, align 8
  %8 = getelementptr inbounds nuw i8, ptr %4, i64 32
  store ptr @_ZL29__ncnn_layer_destroy_pipelineP14__ncnn_layer_tP15__ncnn_option_t, ptr %8, align 8
  %9 = getelementptr inbounds nuw i8, ptr %4, i64 40
  store ptr @_ZL22__ncnn_layer_forward_1P14__ncnn_layer_tP12__ncnn_mat_tPS2_P15__ncnn_option_t, ptr %9, align 8
  %10 = getelementptr inbounds nuw i8, ptr %4, i64 48
  store ptr @_ZL22__ncnn_layer_forward_nP14__ncnn_layer_tPKP12__ncnn_mat_tiPS2_iP15__ncnn_option_t, ptr %10, align 8
  %11 = getelementptr inbounds nuw i8, ptr %4, i64 56
  store ptr @_ZL30__ncnn_layer_forward_inplace_1P14__ncnn_layer_tP12__ncnn_mat_tP15__ncnn_option_t, ptr %11, align 8
  %12 = getelementptr inbounds nuw i8, ptr %4, i64 64
  store ptr @_ZL30__ncnn_layer_forward_inplace_nP14__ncnn_layer_tPP12__ncnn_mat_tiP15__ncnn_option_t, ptr %12, align 8
  br label %13

13:                                               ; preds = %1, %3
  %.0 = phi ptr [ %4, %3 ], [ null, %1 ]
  ret ptr %.0
}